target datalayout = "e-m:e-p270:32:32-p271:32:32-p272:64:64-i64:64-i128:128-f80:128-n8:16:32:64-S128"
target triple = "x86_64-unknown-linux-gnu"

%"class.FLAC::Metadata::Prototype" = type <{ ptr, ptr, i8, [7 x i8] }>

@_ZTVN4FLAC8Metadata9PrototypeE = unnamed_addr constant { [5 x ptr] } { [5 x ptr] [ptr null, ptr @_ZTIN4FLAC8Metadata9PrototypeE, ptr @_ZN4FLAC8Metadata9Prototype5clearEv, ptr @_ZN4FLAC8Metadata9PrototypeD1Ev, ptr @_ZN4FLAC8Metadata9PrototypeD0Ev] }, align 8
@_ZTVN4FLAC8Metadata8CueSheetE = unnamed_addr constant { [5 x ptr] } { [5 x ptr] [ptr null, ptr @_ZTIN4FLAC8Metadata8CueSheetE, ptr @_ZN4FLAC8Metadata9Prototype5clearEv, ptr @_ZN4FLAC8Metadata8CueSheetD1Ev, ptr @_ZN4FLAC8Metadata8CueSheetD0Ev] }, align 8

; Function Attrs: mustprogress sspstrong uwtable
define void @_ZN4FLAC8Metadata9PrototypeC2EP20FLAC__StreamMetadatab(ptr noundef nonnull align 8 dereferenceable(17) %this, ptr noundef %object, i1 noundef zeroext %copy) unnamed_addr #0 align 2 {
entry:
  %this.addr = alloca ptr, align 8
  %object.addr = alloca ptr, align 8
  %copy.addr = alloca i8, align 1
  store ptr %this, ptr %this.addr, align 8
  store ptr %object, ptr %object.addr, align 8
  %frombool = zext i1 %copy to i8
  store i8 %frombool, ptr %copy.addr, align 1
  %this1 = load ptr, ptr %this.addr, align 8
  store ptr getelementptr inbounds ({ [5 x ptr] }, ptr @_ZTVN4FLAC8Metadata9PrototypeE, i32 0, i32 0, i32 2), ptr %this1, align 8
  %object_ = getelementptr inbounds %"class.FLAC::Metadata::Prototype", ptr %this1, i32 0, i32 1
  %0 = load i8, ptr %copy.addr, align 1
  %tobool = trunc i8 %0 to i1
  br i1 %tobool, label %cond.true, label %cond.false

cond.true:                                        ; preds = %entry
  %1 = load ptr, ptr %object.addr, align 8
  %call = call ptr @FLAC__metadata_object_clone(ptr noundef %1)
  br label %cond.end

cond.false:                                       ; preds = %entry
  %2 = load ptr, ptr %object.addr, align 8
  br label %cond.end

cond.end:                                         ; preds = %cond.false, %cond.true
  %cond = phi ptr [ %call, %cond.true ], [ %2, %cond.false ]
  store ptr %cond, ptr %object_, align 8
  %is_reference_ = getelementptr inbounds %"class.FLAC::Metadata::Prototype", ptr %this1, i32 0, i32 2
  store i8 0, ptr %is_reference_, align 8
  ret void
}

; Function Attrs: mustprogress sspstrong uwtable
define linkonce_odr void @_ZN4FLAC8Metadata8CueSheetC2EP20FLAC__StreamMetadatab(ptr noundef nonnull align 8 dereferenceable(17) %this, ptr noundef %object, i1 noundef zeroext %copy) unnamed_addr #0 comdat align 2 {
entry:
  %this.addr = alloca ptr, align 8
  %object.addr = alloca ptr, align 8
  %copy.addr = alloca i8, align 1
  store ptr %this, ptr %this.addr, align 8
  store ptr %object, ptr %object.addr, align 8
  %frombool = zext i1 %copy to i8
  store i8 %frombool, ptr %copy.addr, align 1
  %this1 = load ptr, ptr %this.addr, align 8
  %0 = load ptr, ptr %object.addr, align 8
  %1 = load i8, ptr %copy.addr, align 1
  %tobool = trunc i8 %1 to i1
  call void @_ZN4FLAC8Metadata9PrototypeC2EP20FLAC__StreamMetadatab(ptr noundef nonnull align 8 dereferenceable(17) %this1, ptr noundef %0, i1 noundef zeroext %tobool)
  store ptr getelementptr inbounds ({ [5 x ptr] }, ptr @_ZTVN4FLAC8Metadata8CueSheetE, i32 0, i32 0, i32 2), ptr %this1, align 8
  ret void
}

; Function Attrs: mustprogress sspstrong uwtable
define noundef zeroext i1 @_ZN4FLAC8Metadata12get_cuesheetEPKcRPNS0_8CueSheetE(ptr noundef %filename, ptr noundef nonnull align 8 dereferenceable(8) %cuesheet) #0 personality ptr @__gxx_personality_v0 {
entry:
  %retval = alloca i1, align 1
  %filename.addr = alloca ptr, align 8
  %cuesheet.addr = alloca ptr, align 8
  %object = alloca ptr, align 8
  %exn.slot = alloca ptr, align 8
  %ehselector.slot = alloca i32, align 4
  store ptr %filename, ptr %filename.addr, align 8
  store ptr %cuesheet, ptr %cuesheet.addr, align 8
  %0 = load ptr, ptr %cuesheet.addr, align 8
  store ptr null, ptr %0, align 8
  %1 = load ptr, ptr %filename.addr, align 8
  %call = call i32 @FLAC__metadata_get_cuesheet(ptr noundef %1, ptr noundef %object)
  %tobool = icmp ne i32 %call, 0
  br i1 %tobool, label %if.then, label %if.else

if.then:                                          ; preds = %entry
  %call1 = call noalias noundef nonnull ptr @_Znwm(i64 noundef 24) #12
  %2 = load ptr, ptr %object, align 8
  invoke void @_ZN4FLAC8Metadata8CueSheetC2EP20FLAC__StreamMetadatab(ptr noundef nonnull align 8 dereferenceable(17) %call1, ptr noundef %2, i1 noundef zeroext false)
          to label %invoke.cont unwind label %lpad

invoke.cont:                                      ; preds = %if.then
  %3 = load ptr, ptr %cuesheet.addr, align 8
  store ptr %call1, ptr %3, align 8
  store i1 true, ptr %retval, align 1
  br label %return

lpad:                                             ; preds = %if.then
  %4 = landingpad { ptr, i32 }
          cleanup
  %5 = extractvalue { ptr, i32 } %4, 0
  store ptr %5, ptr %exn.slot, align 8
  %6 = extractvalue { ptr, i32 } %4, 1
  store i32 %6, ptr %ehselector.slot, align 4
  call void @_ZdlPv(ptr noundef %call1) #13
  br label %eh.resume

if.else:                                          ; preds = %entry
  store i1 false, ptr %retval, align 1
  br label %return

return:                                           ; preds = %if.else, %invoke.cont
  %7 = load i1, ptr %retval, align 1
  ret i1 %7

eh.resume:                                        ; preds = %lpad
  %exn = load ptr, ptr %exn.slot, align 8
  %sel = load i32, ptr %ehselector.slot, align 4
  %lpad.val = insertvalue { ptr, i32 } poison, ptr %exn, 0
  %lpad.val2 = insertvalue { ptr, i32 } %lpad.val, i32 %sel, 1
  resume { ptr, i32 } %lpad.val2
}